target datalayout = "e-m:e-p270:32:32-p271:32:32-p272:64:64-i64:64-i128:128-f80:128-n8:16:32:64-S128"
target triple = "x86_64-pc-linux-gnu"

; Function Attrs: nounwind uwtable
define dso_local i32 @ASN1_TIME_compare(ptr noundef %0, ptr noundef %1) #0 {
  %3 = alloca i32, align 4
  %4 = alloca ptr, align 8
  %5 = alloca ptr, align 8
  %6 = alloca i32, align 4
  %7 = alloca i32, align 4
  %8 = alloca i32, align 4
  store ptr %0, ptr %4, align 8, !tbaa !13
  store ptr %1, ptr %5, align 8, !tbaa !13
  call void @llvm.lifetime.start.p0(i64 4, ptr %6) #7
  call void @llvm.lifetime.start.p0(i64 4, ptr %7) #7
  %9 = load ptr, ptr %5, align 8, !tbaa !13
  %10 = load ptr, ptr %4, align 8, !tbaa !13
  %11 = call i32 @ASN1_TIME_diff(ptr noundef %6, ptr noundef %7, ptr noundef %9, ptr noundef %10)
  %12 = icmp ne i32 %11, 0
  br i1 %12, label %14, label %13

13:                                               ; preds = %2
  store i32 -2, ptr %3, align 4
  store i32 1, ptr %8, align 4
  br label %29

14:                                               ; preds = %2
  %15 = load i32, ptr %6, align 4, !tbaa !17
  %16 = icmp sgt i32 %15, 0
  br i1 %16, label %20, label %17

17:                                               ; preds = %14
  %18 = load i32, ptr %7, align 4, !tbaa !17
  %19 = icmp sgt i32 %18, 0
  br i1 %19, label %20, label %21

20:                                               ; preds = %17, %14
  store i32 1, ptr %3, align 4
  store i32 1, ptr %8, align 4
  br label %29

21:                                               ; preds = %17
  %22 = load i32, ptr %6, align 4, !tbaa !17
  %23 = icmp slt i32 %22, 0
  br i1 %23, label %27, label %24

24:                                               ; preds = %21
  %25 = load i32, ptr %7, align 4, !tbaa !17
  %26 = icmp slt i32 %25, 0
  br i1 %26, label %27, label %28

27:                                               ; preds = %24, %21
  store i32 -1, ptr %3, align 4
  store i32 1, ptr %8, align 4
  br label %29

28:                                               ; preds = %24
  store i32 0, ptr %3, align 4
  store i32 1, ptr %8, align 4
  br label %29

29:                                               ; preds = %28, %27, %20, %13
  call void @llvm.lifetime.end.p0(i64 4, ptr %7) #7
  call void @llvm.lifetime.end.p0(i64 4, ptr %6) #7
  %30 = load i32, ptr %3, align 4
  ret i32 %30
}