; Function Attrs: nounwind uwtable
define dso_local range(i32 -2, 2) i32 @ASN1_TIME_compare(ptr noundef captures(address_is_null) %0, ptr noundef captures(address_is_null) %1) local_unnamed_addr #1 {
  %3 = alloca i32, align 4
  %4 = alloca i32, align 4
  call void @llvm.lifetime.start.p0(i64 4, ptr nonnull %3) #8
  call void @llvm.lifetime.start.p0(i64 4, ptr nonnull %4) #8
  %5 = call i32 @ASN1_TIME_diff(ptr noundef nonnull %3, ptr noundef nonnull %4, ptr noundef %1, ptr noundef %0)
  %.not = icmp eq i32 %5, 0
  br i1 %.not, label %14, label %6

6:                                                ; preds = %2
  %7 = load i32, ptr %3, align 4, !tbaa !16
  %8 = icmp sgt i32 %7, 0
  %9 = load i32, ptr %4, align 4
  %10 = icmp sgt i32 %9, 0
  %or.cond = select i1 %8, i1 true, i1 %10
  br i1 %or.cond, label %14, label %11

11:                                               ; preds = %6
  %12 = icmp slt i32 %7, 0
  %13 = icmp slt i32 %9, 0
  %or.cond3 = select i1 %12, i1 true, i1 %13
  %. = sext i1 %or.cond3 to i32
  br label %14

14:                                               ; preds = %11, %6, %2
  %.0 = phi i32 [ -2, %2 ], [ 1, %6 ], [ %., %11 ]
  call void @llvm.lifetime.end.p0(i64 4, ptr nonnull %4) #8
  call void @llvm.lifetime.end.p0(i64 4, ptr nonnull %3) #8
  ret i32 %.0
}